target datalayout = "e-m:e-p270:32:32-p271:32:32-p272:64:64-i64:64-i128:128-f80:128-n8:16:32:64-S128"
target triple = "x86_64-pc-linux-gnu"

%struct.Cgt_Man_t_ = type { ptr, ptr, ptr, ptr, ptr, ptr, ptr, ptr, ptr, ptr, ptr, ptr, ptr, ptr, i32, i32, i32, i32, i32, i32, i32, i32, i64, i64, i64, i64, i64, i64, i64, i64, i64 }
%struct.Vec_Ptr_t_ = type { i32, i32, ptr }
%struct.Aig_Obj_t_ = type { %union.anon, ptr, ptr, i64, i32, i32, %union.anon.0 }
%union.anon = type { ptr }
%union.anon.0 = type { ptr }
%struct.Aig_Man_t_ = type { ptr, ptr, ptr, ptr, ptr, ptr, ptr, %struct.Aig_Obj_t_, i32, i32, i32, i32, i32, i32, [7 x i32], i32, ptr, i32, ptr, i32, ptr, i32, i32, i32, ptr, i32, i32, i32, i32, i32, ptr, ptr, i32, ptr, ptr, i32, ptr, ptr, i32, i32, i32, ptr, ptr, ptr, ptr, ptr, ptr, ptr, ptr, ptr, ptr, ptr, ptr, ptr, ptr, i32, ptr, ptr, ptr, ptr, i32, i64, i64, i64, ptr, ptr }
%struct.Cnf_Dat_t_ = type { ptr, i32, i32, i32, ptr, ptr, ptr, ptr, ptr, ptr }
%struct.sat_solver_t = type { i32, i32, i32, i32, %struct.Sat_Mem_t_, i32, i32, ptr, ptr, i32, i32, i32, i32, i32, i64, i64, i64, ptr, ptr, i32, i32, %struct.veci_t, ptr, i32, ptr, ptr, ptr, ptr, ptr, ptr, ptr, ptr, %struct.veci_t, %struct.veci_t, %struct.veci_t, %struct.veci_t, ptr, %struct.veci_t, i32, i32, i32, double, double, i32, i32, i32, %struct.stats_t, i32, i32, i32, i32, i32, i64, i64, i64, %struct.veci_t, ptr, i32, i32, i32, %struct.veci_t, %struct.veci_t, i32, i32, i32, ptr, ptr, i32, ptr, i32, i32, %struct.veci_t, %struct.veci_t, %struct.veci_t, ptr, ptr, i32, ptr }
%struct.Sat_Mem_t_ = type { [2 x i32], [2 x i32], [2 x i32], [2 x i32], i32, i32, i32, i32, ptr }
%struct.stats_t = type { i32, i32, i32, i64, i64, i64, i64, i64, i64, i64 }
%struct.veci_t = type { i32, i32, ptr }

; Function Attrs: inlinehint nounwind uwtable
define internal ptr @Vec_PtrAllocArray(ptr noundef %0, i32 noundef %1) #3 {
  %3 = alloca ptr, align 8
  %4 = alloca i32, align 4
  %5 = alloca ptr, align 8
  store ptr %0, ptr %3, align 8, !tbaa !41
  store i32 %1, ptr %4, align 4, !tbaa !31
  call void @llvm.lifetime.start.p0(i64 8, ptr %5) #11
  %6 = call noalias ptr @malloc(i64 noundef 16) #12
  store ptr %6, ptr %5, align 8, !tbaa !38
  %7 = load i32, ptr %4, align 4, !tbaa !31
  %8 = load ptr, ptr %5, align 8, !tbaa !38
  %9 = getelementptr inbounds nuw %struct.Vec_Ptr_t_, ptr %8, i32 0, i32 1
  store i32 %7, ptr %9, align 4, !tbaa !58
  %10 = load i32, ptr %4, align 4, !tbaa !31
  %11 = load ptr, ptr %5, align 8, !tbaa !38
  %12 = getelementptr inbounds nuw %struct.Vec_Ptr_t_, ptr %11, i32 0, i32 0
  store i32 %10, ptr %12, align 8, !tbaa !115
  %13 = load ptr, ptr %3, align 8, !tbaa !41
  %14 = load ptr, ptr %5, align 8, !tbaa !38
  %15 = getelementptr inbounds nuw %struct.Vec_Ptr_t_, ptr %14, i32 0, i32 2
  store ptr %13, ptr %15, align 8, !tbaa !39
  %16 = load ptr, ptr %5, align 8, !tbaa !38
  call void @llvm.lifetime.end.p0(i64 8, ptr %5) #11
  ret ptr %16
}

; Function Attrs: inlinehint nounwind uwtable
define internal ptr @Vec_PtrAllocSimInfo(i32 noundef %0, i32 noundef %1) #3 {
  %3 = alloca i32, align 4
  %4 = alloca i32, align 4
  %5 = alloca ptr, align 8
  %6 = alloca ptr, align 8
  %7 = alloca i32, align 4
  store i32 %0, ptr %3, align 4, !tbaa !31
  store i32 %1, ptr %4, align 4, !tbaa !31
  call void @llvm.lifetime.start.p0(i64 8, ptr %5) #11
  call void @llvm.lifetime.start.p0(i64 8, ptr %6) #11
  call void @llvm.lifetime.start.p0(i64 4, ptr %7) #11
  %8 = load i32, ptr %4, align 4, !tbaa !31
  %9 = sext i32 %8 to i64
  %10 = mul i64 4, %9
  %11 = add i64 8, %10
  %12 = load i32, ptr %3, align 4, !tbaa !31
  %13 = sext i32 %12 to i64
  %14 = mul i64 %11, %13
  %15 = mul i64 1, %14
  %16 = call noalias ptr @malloc(i64 noundef %15) #12
  store ptr %16, ptr %5, align 8, !tbaa !41
  %17 = load ptr, ptr %5, align 8, !tbaa !41
  %18 = load i32, ptr %3, align 4, !tbaa !31
  %19 = sext i32 %18 to i64
  %20 = getelementptr inbounds ptr, ptr %17, i64 %19
  store ptr %20, ptr %6, align 8, !tbaa !33
  store i32 0, ptr %7, align 4, !tbaa !31
  br label %21

21:                                               ; preds = %36, %2
  %22 = load i32, ptr %7, align 4, !tbaa !31
  %23 = load i32, ptr %3, align 4, !tbaa !31
  %24 = icmp slt i32 %22, %23
  br i1 %24, label %25, label %39

25:                                               ; preds = %21
  %26 = load ptr, ptr %6, align 8, !tbaa !33
  %27 = load i32, ptr %7, align 4, !tbaa !31
  %28 = load i32, ptr %4, align 4, !tbaa !31
  %29 = mul nsw i32 %27, %28
  %30 = sext i32 %29 to i64
  %31 = getelementptr inbounds i32, ptr %26, i64 %30
  %32 = load ptr, ptr %5, align 8, !tbaa !41
  %33 = load i32, ptr %7, align 4, !tbaa !31
  %34 = sext i32 %33 to i64
  %35 = getelementptr inbounds ptr, ptr %32, i64 %34
  store ptr %31, ptr %35, align 8, !tbaa !41
  br label %36

36:                                               ; preds = %25
  %37 = load i32, ptr %7, align 4, !tbaa !31
  %38 = add nsw i32 %37, 1
  store i32 %38, ptr %7, align 4, !tbaa !31
  br label %21, !llvm.loop !104

39:                                               ; preds = %21
  %40 = load ptr, ptr %5, align 8, !tbaa !41
  %41 = load i32, ptr %3, align 4, !tbaa !31
  %42 = call ptr @Vec_PtrAllocArray(ptr noundef %40, i32 noundef %41)
  call void @llvm.lifetime.end.p0(i64 4, ptr %7) #11
  call void @llvm.lifetime.end.p0(i64 8, ptr %6) #11
  call void @llvm.lifetime.end.p0(i64 8, ptr %5) #11
  ret ptr %42
}

; Function Attrs: inlinehint nounwind uwtable
define internal void @Vec_PtrCleanSimInfo(ptr noundef %0, i32 noundef %1, i32 noundef %2) #3 {
  %4 = alloca ptr, align 8
  %5 = alloca i32, align 4
  %6 = alloca i32, align 4
  %7 = alloca i32, align 4
  store ptr %0, ptr %4, align 8, !tbaa !38
  store i32 %1, ptr %5, align 4, !tbaa !31
  store i32 %2, ptr %6, align 4, !tbaa !31
  call void @llvm.lifetime.start.p0(i64 4, ptr %7) #11
  store i32 0, ptr %7, align 4, !tbaa !31
  br label %8

8:                                                ; preds = %27, %3
  %9 = load i32, ptr %7, align 4, !tbaa !31
  %10 = load ptr, ptr %4, align 8, !tbaa !38
  %11 = getelementptr inbounds nuw %struct.Vec_Ptr_t_, ptr %10, i32 0, i32 1
  %12 = load i32, ptr %11, align 4, !tbaa !58
  %13 = icmp slt i32 %9, %12
  br i1 %13, label %14, label %30

14:                                               ; preds = %8
  %15 = load ptr, ptr %4, align 8, !tbaa !38
  %16 = load i32, ptr %7, align 4, !tbaa !31
  %17 = call ptr @Vec_PtrEntry(ptr noundef %15, i32 noundef %16)
  %18 = load i32, ptr %5, align 4, !tbaa !31
  %19 = mul nsw i32 4, %18
  %20 = sext i32 %19 to i64
  %21 = getelementptr inbounds i8, ptr %17, i64 %20
  %22 = load i32, ptr %6, align 4, !tbaa !31
  %23 = load i32, ptr %5, align 4, !tbaa !31
  %24 = sub nsw i32 %22, %23
  %25 = mul nsw i32 4, %24
  %26 = sext i32 %25 to i64
  call void @llvm.memset.p0.i64(ptr align 1 %21, i8 0, i64 %26, i1 false)
  br label %27

27:                                               ; preds = %14
  %28 = load i32, ptr %7, align 4, !tbaa !31
  %29 = add nsw i32 %28, 1
  store i32 %29, ptr %7, align 4, !tbaa !31
  br label %8, !llvm.loop !72

30:                                               ; preds = %8
  call void @llvm.lifetime.end.p0(i64 4, ptr %7) #11
  ret void
}

; Function Attrs: inlinehint nounwind uwtable
define internal void @Vec_PtrReallocSimInfo(ptr noundef %0) #3 {
  %2 = alloca ptr, align 8
  %3 = alloca ptr, align 8
  %4 = alloca i32, align 4
  %5 = alloca i32, align 4
  store ptr %0, ptr %2, align 8, !tbaa !38
  call void @llvm.lifetime.start.p0(i64 8, ptr %3) #11
  call void @llvm.lifetime.start.p0(i64 4, ptr %4) #11
  call void @llvm.lifetime.start.p0(i64 4, ptr %5) #11
  %6 = load ptr, ptr %2, align 8, !tbaa !38
  %7 = call ptr @Vec_PtrEntry(ptr noundef %6, i32 noundef 1)
  %8 = load ptr, ptr %2, align 8, !tbaa !38
  %9 = call ptr @Vec_PtrEntry(ptr noundef %8, i32 noundef 0)
  %10 = ptrtoint ptr %7 to i64
  %11 = ptrtoint ptr %9 to i64
  %12 = sub i64 %10, %11
  %13 = sdiv exact i64 %12, 4
  %14 = trunc i64 %13 to i32
  store i32 %14, ptr %4, align 4, !tbaa !31
  %15 = load ptr, ptr %2, align 8, !tbaa !38
  %16 = call i32 @Vec_PtrSize(ptr noundef %15)
  %17 = load i32, ptr %4, align 4, !tbaa !31
  %18 = mul nsw i32 2, %17
  %19 = call ptr @Vec_PtrAllocSimInfo(i32 noundef %16, i32 noundef %18)
  store ptr %19, ptr %3, align 8, !tbaa !38
  store i32 0, ptr %5, align 4, !tbaa !31
  br label %20

20:                                               ; preds = %36, %1
  %21 = load i32, ptr %5, align 4, !tbaa !31
  %22 = load ptr, ptr %2, align 8, !tbaa !38
  %23 = getelementptr inbounds nuw %struct.Vec_Ptr_t_, ptr %22, i32 0, i32 1
  %24 = load i32, ptr %23, align 4, !tbaa !58
  %25 = icmp slt i32 %21, %24
  br i1 %25, label %26, label %39

26:                                               ; preds = %20
  %27 = load ptr, ptr %3, align 8, !tbaa !38
  %28 = load i32, ptr %5, align 4, !tbaa !31
  %29 = call ptr @Vec_PtrEntry(ptr noundef %27, i32 noundef %28)
  %30 = load ptr, ptr %2, align 8, !tbaa !38
  %31 = load i32, ptr %5, align 4, !tbaa !31
  %32 = call ptr @Vec_PtrEntry(ptr noundef %30, i32 noundef %31)
  %33 = load i32, ptr %4, align 4, !tbaa !31
  %34 = mul nsw i32 %33, 4
  %35 = sext i32 %34 to i64
  call void @llvm.memcpy.p0.p0.i64(ptr align 1 %29, ptr align 1 %32, i64 %35, i1 false)
  br label %36

36:                                               ; preds = %26
  %37 = load i32, ptr %5, align 4, !tbaa !31
  %38 = add nsw i32 %37, 1
  store i32 %38, ptr %5, align 4, !tbaa !31
  br label %20, !llvm.loop !71

39:                                               ; preds = %20
  %40 = load ptr, ptr %2, align 8, !tbaa !38
  %41 = getelementptr inbounds nuw %struct.Vec_Ptr_t_, ptr %40, i32 0, i32 2
  %42 = load ptr, ptr %41, align 8, !tbaa !39
  %43 = icmp ne ptr %42, null
  br i1 %43, label %44, label %50

44:                                               ; preds = %39
  %45 = load ptr, ptr %2, align 8, !tbaa !38
  %46 = getelementptr inbounds nuw %struct.Vec_Ptr_t_, ptr %45, i32 0, i32 2
  %47 = load ptr, ptr %46, align 8, !tbaa !39
  call void @free(ptr noundef %47) #11
  %48 = load ptr, ptr %2, align 8, !tbaa !38
  %49 = getelementptr inbounds nuw %struct.Vec_Ptr_t_, ptr %48, i32 0, i32 2
  store ptr null, ptr %49, align 8, !tbaa !39
  br label %51

50:                                               ; preds = %39
  br label %51

51:                                               ; preds = %50, %44
  %52 = load ptr, ptr %3, align 8, !tbaa !38
  %53 = getelementptr inbounds nuw %struct.Vec_Ptr_t_, ptr %52, i32 0, i32 2
  %54 = load ptr, ptr %53, align 8, !tbaa !39
  %55 = load ptr, ptr %2, align 8, !tbaa !38
  %56 = getelementptr inbounds nuw %struct.Vec_Ptr_t_, ptr %55, i32 0, i32 2
  store ptr %54, ptr %56, align 8, !tbaa !39
  %57 = load ptr, ptr %3, align 8, !tbaa !38
  %58 = getelementptr inbounds nuw %struct.Vec_Ptr_t_, ptr %57, i32 0, i32 2
  store ptr null, ptr %58, align 8, !tbaa !39
  %59 = load ptr, ptr %3, align 8, !tbaa !38
  %60 = icmp ne ptr %59, null
  br i1 %60, label %61, label %63

61:                                               ; preds = %51
  %62 = load ptr, ptr %3, align 8, !tbaa !38
  call void @free(ptr noundef %62) #11
  store ptr null, ptr %3, align 8, !tbaa !38
  br label %64

63:                                               ; preds = %51
  br label %64

64:                                               ; preds = %63, %61
  call void @llvm.lifetime.end.p0(i64 4, ptr %5) #11
  call void @llvm.lifetime.end.p0(i64 4, ptr %4) #11
  call void @llvm.lifetime.end.p0(i64 8, ptr %3) #11
  ret void
}

; Function Attrs: inlinehint nounwind uwtable
define internal void @Abc_InfoSetBit(ptr noundef %0, i32 noundef %1) #3 {
  %3 = alloca ptr, align 8
  %4 = alloca i32, align 4
  store ptr %0, ptr %3, align 8, !tbaa !33
  store i32 %1, ptr %4, align 4, !tbaa !31
  %5 = load i32, ptr %4, align 4, !tbaa !31
  %6 = and i32 %5, 31
  %7 = shl i32 1, %6
  %8 = load ptr, ptr %3, align 8, !tbaa !33
  %9 = load i32, ptr %4, align 4, !tbaa !31
  %10 = ashr i32 %9, 5
  %11 = sext i32 %10 to i64
  %12 = getelementptr inbounds i32, ptr %8, i64 %11
  %13 = load i32, ptr %12, align 4, !tbaa !31
  %14 = or i32 %13, %7
  store i32 %14, ptr %12, align 4, !tbaa !31
  ret void
}

; Function Attrs: inlinehint nounwind uwtable
define internal i32 @sat_solver_var_value(ptr noundef %0, i32 noundef %1) #3 {
  %3 = alloca ptr, align 8
  %4 = alloca i32, align 4
  store ptr %0, ptr %3, align 8, !tbaa !59
  store i32 %1, ptr %4, align 4, !tbaa !31
  %5 = load ptr, ptr %3, align 8, !tbaa !59
  %6 = getelementptr inbounds nuw %struct.sat_solver_t, ptr %5, i32 0, i32 36
  %7 = load ptr, ptr %6, align 8, !tbaa !60
  %8 = load i32, ptr %4, align 4, !tbaa !31
  %9 = sext i32 %8 to i64
  %10 = getelementptr inbounds i32, ptr %7, i64 %9
  %11 = load i32, ptr %10, align 4, !tbaa !31
  %12 = icmp eq i32 %11, 1
  %13 = zext i1 %12 to i32
  ret i32 %13
}

; Function Attrs: inlinehint nounwind uwtable
define internal ptr @Vec_PtrEntry(ptr noundef %0, i32 noundef %1) #3 {
  %3 = alloca ptr, align 8
  %4 = alloca i32, align 4
  store ptr %0, ptr %3, align 8, !tbaa !38
  store i32 %1, ptr %4, align 4, !tbaa !31
  %5 = load ptr, ptr %3, align 8, !tbaa !38
  %6 = getelementptr inbounds nuw %struct.Vec_Ptr_t_, ptr %5, i32 0, i32 2
  %7 = load ptr, ptr %6, align 8, !tbaa !39
  %8 = load i32, ptr %4, align 4, !tbaa !31
  %9 = sext i32 %8 to i64
  %10 = getelementptr inbounds ptr, ptr %7, i64 %9
  %11 = load ptr, ptr %10, align 8, !tbaa !41
  ret ptr %11
}

; Function Attrs: inlinehint nounwind uwtable
define internal i32 @Vec_PtrSize(ptr noundef %0) #3 {
  %2 = alloca ptr, align 8
  store ptr %0, ptr %2, align 8, !tbaa !38
  %3 = load ptr, ptr %2, align 8, !tbaa !38
  %4 = getelementptr inbounds nuw %struct.Vec_Ptr_t_, ptr %3, i32 0, i32 1
  %5 = load i32, ptr %4, align 4, !tbaa !58
  ret i32 %5
}

; Function Attrs: nounwind uwtable
define void @Cgt_SimulationRecord(ptr noundef %0) #0 {
  %2 = alloca ptr, align 8
  %3 = alloca ptr, align 8
  %4 = alloca i32, align 4
  store ptr %0, ptr %2, align 8, !tbaa !18
  call void @llvm.lifetime.start.p0(i64 8, ptr %3) #11
  call void @llvm.lifetime.start.p0(i64 4, ptr %4) #11
  store i32 0, ptr %4, align 4, !tbaa !31
  br label %5

5:                                                ; preds = %54, %1
  %6 = load i32, ptr %4, align 4, !tbaa !31
  %7 = load ptr, ptr %2, align 8, !tbaa !18
  %8 = getelementptr inbounds nuw %struct.Cgt_Man_t_, ptr %7, i32 0, i32 10
  %9 = load ptr, ptr %8, align 8, !tbaa !44
  %10 = getelementptr inbounds nuw %struct.Aig_Man_t_, ptr %9, i32 0, i32 4
  %11 = load ptr, ptr %10, align 8, !tbaa !45
  %12 = call i32 @Vec_PtrSize(ptr noundef %11)
  %13 = icmp slt i32 %6, %12
  br i1 %13, label %14, label %22

14:                                               ; preds = %5
  %15 = load ptr, ptr %2, align 8, !tbaa !18
  %16 = getelementptr inbounds nuw %struct.Cgt_Man_t_, ptr %15, i32 0, i32 10
  %17 = load ptr, ptr %16, align 8, !tbaa !44
  %18 = getelementptr inbounds nuw %struct.Aig_Man_t_, ptr %17, i32 0, i32 4
  %19 = load ptr, ptr %18, align 8, !tbaa !45
  %20 = load i32, ptr %4, align 4, !tbaa !31
  %21 = call ptr @Vec_PtrEntry(ptr noundef %19, i32 noundef %20)
  store ptr %21, ptr %3, align 8, !tbaa !20
  br label %22

22:                                               ; preds = %14, %5
  %23 = phi i1 [ false, %5 ], [ true, %14 ]
  br i1 %23, label %24, label %57

24:                                               ; preds = %22
  %25 = load ptr, ptr %3, align 8, !tbaa !20
  %26 = icmp eq ptr %25, null
  br i1 %26, label %27, label %28

27:                                               ; preds = %24
  br label %53

28:                                               ; preds = %24
  %29 = load ptr, ptr %2, align 8, !tbaa !18
  %30 = getelementptr inbounds nuw %struct.Cgt_Man_t_, ptr %29, i32 0, i32 12
  %31 = load ptr, ptr %30, align 8, !tbaa !51
  %32 = load ptr, ptr %2, align 8, !tbaa !18
  %33 = getelementptr inbounds nuw %struct.Cgt_Man_t_, ptr %32, i32 0, i32 11
  %34 = load ptr, ptr %33, align 8, !tbaa !52
  %35 = getelementptr inbounds nuw %struct.Cnf_Dat_t_, ptr %34, i32 0, i32 5
  %36 = load ptr, ptr %35, align 8, !tbaa !53
  %37 = load i32, ptr %4, align 4, !tbaa !31
  %38 = sext i32 %37 to i64
  %39 = getelementptr inbounds i32, ptr %36, i64 %38
  %40 = load i32, ptr %39, align 4, !tbaa !31
  %41 = call i32 @sat_solver_var_value(ptr noundef %31, i32 noundef %40)
  %42 = icmp ne i32 %41, 0
  br i1 %42, label %43, label %52

43:                                               ; preds = %28
  %44 = load ptr, ptr %2, align 8, !tbaa !18
  %45 = getelementptr inbounds nuw %struct.Cgt_Man_t_, ptr %44, i32 0, i32 13
  %46 = load ptr, ptr %45, align 8, !tbaa !32
  %47 = load i32, ptr %4, align 4, !tbaa !31
  %48 = call ptr @Vec_PtrEntry(ptr noundef %46, i32 noundef %47)
  %49 = load ptr, ptr %2, align 8, !tbaa !18
  %50 = getelementptr inbounds nuw %struct.Cgt_Man_t_, ptr %49, i32 0, i32 14
  %51 = load i32, ptr %50, align 8, !tbaa !22
  call void @Abc_InfoSetBit(ptr noundef %48, i32 noundef %51)
  br label %52

52:                                               ; preds = %43, %28
  br label %53

53:                                               ; preds = %52, %27
  br label %54

54:                                               ; preds = %53
  %55 = load i32, ptr %4, align 4, !tbaa !31
  %56 = add nsw i32 %55, 1
  store i32 %56, ptr %4, align 4, !tbaa !31
  br label %5, !llvm.loop !56

57:                                               ; preds = %22
  %58 = load ptr, ptr %2, align 8, !tbaa !18
  %59 = getelementptr inbounds nuw %struct.Cgt_Man_t_, ptr %58, i32 0, i32 14
  %60 = load i32, ptr %59, align 8, !tbaa !22
  %61 = add nsw i32 %60, 1
  store i32 %61, ptr %59, align 8, !tbaa !22
  %62 = load ptr, ptr %2, align 8, !tbaa !18
  %63 = getelementptr inbounds nuw %struct.Cgt_Man_t_, ptr %62, i32 0, i32 14
  %64 = load i32, ptr %63, align 8, !tbaa !22
  %65 = load ptr, ptr %2, align 8, !tbaa !18
  %66 = getelementptr inbounds nuw %struct.Cgt_Man_t_, ptr %65, i32 0, i32 15
  %67 = load i32, ptr %66, align 4, !tbaa !57
  %68 = mul nsw i32 32, %67
  %69 = icmp eq i32 %64, %68
  br i1 %69, label %70, label %88

70:                                               ; preds = %57
  %71 = load ptr, ptr %2, align 8, !tbaa !18
  %72 = getelementptr inbounds nuw %struct.Cgt_Man_t_, ptr %71, i32 0, i32 13
  %73 = load ptr, ptr %72, align 8, !tbaa !32
  call void @Vec_PtrReallocSimInfo(ptr noundef %73)
  %74 = load ptr, ptr %2, align 8, !tbaa !18
  %75 = getelementptr inbounds nuw %struct.Cgt_Man_t_, ptr %74, i32 0, i32 13
  %76 = load ptr, ptr %75, align 8, !tbaa !32
  %77 = load ptr, ptr %2, align 8, !tbaa !18
  %78 = getelementptr inbounds nuw %struct.Cgt_Man_t_, ptr %77, i32 0, i32 15
  %79 = load i32, ptr %78, align 4, !tbaa !57
  %80 = load ptr, ptr %2, align 8, !tbaa !18
  %81 = getelementptr inbounds nuw %struct.Cgt_Man_t_, ptr %80, i32 0, i32 15
  %82 = load i32, ptr %81, align 4, !tbaa !57
  %83 = mul nsw i32 2, %82
  call void @Vec_PtrCleanSimInfo(ptr noundef %76, i32 noundef %79, i32 noundef %83)
  %84 = load ptr, ptr %2, align 8, !tbaa !18
  %85 = getelementptr inbounds nuw %struct.Cgt_Man_t_, ptr %84, i32 0, i32 15
  %86 = load i32, ptr %85, align 4, !tbaa !57
  %87 = mul nsw i32 %86, 2
  store i32 %87, ptr %85, align 4, !tbaa !57
  br label %88

88:                                               ; preds = %70, %57
  call void @llvm.lifetime.end.p0(i64 4, ptr %4) #11
  call void @llvm.lifetime.end.p0(i64 8, ptr %3) #11
  ret void
}