; Function Attrs: nounwind uwtable
define void @Cgt_SimulationRecord(ptr noundef captures(none) %0) local_unnamed_addr #4 {
  %2 = getelementptr inbounds nuw i8, ptr %0, i64 80
  %3 = load ptr, ptr %2, align 8, !tbaa !37
  %4 = getelementptr inbounds nuw i8, ptr %3, i64 32
  %5 = load ptr, ptr %4, align 8, !tbaa !38
  %6 = getelementptr i8, ptr %5, i64 4
  %.val2025 = load i32, ptr %6, align 4, !tbaa !45
  %7 = icmp sgt i32 %.val2025, 0
  br i1 %7, label %.lr.ph, label %.critedge

.lr.ph:                                           ; preds = %1
  %8 = getelementptr i8, ptr %5, i64 8
  %.val19 = load ptr, ptr %8, align 8, !tbaa !30
  %9 = getelementptr inbounds nuw i8, ptr %0, i64 96
  %10 = getelementptr inbounds nuw i8, ptr %0, i64 88
  %11 = getelementptr inbounds nuw i8, ptr %0, i64 104
  %12 = getelementptr inbounds nuw i8, ptr %0, i64 112
  br label %13

13:                                               ; preds = %.lr.ph, %41
  %.val2028 = phi i32 [ %.val2025, %.lr.ph ], [ %.val20, %41 ]
  %indvars.iv = phi i64 [ 0, %.lr.ph ], [ %indvars.iv.next, %41 ]
  %14 = getelementptr inbounds nuw ptr, ptr %.val19, i64 %indvars.iv
  %15 = load ptr, ptr %14, align 8, !tbaa !32
  %16 = icmp eq ptr %15, null
  br i1 %16, label %41, label %17

17:                                               ; preds = %13
  %18 = load ptr, ptr %9, align 8, !tbaa !46
  %19 = load ptr, ptr %10, align 8, !tbaa !47
  %20 = getelementptr inbounds nuw i8, ptr %19, i64 32
  %21 = load ptr, ptr %20, align 8, !tbaa !48
  %22 = getelementptr inbounds nuw i32, ptr %21, i64 %indvars.iv
  %23 = load i32, ptr %22, align 4, !tbaa !35
  %24 = getelementptr i8, ptr %18, i64 328
  %.val21 = load ptr, ptr %24, align 8, !tbaa !51
  %25 = sext i32 %23 to i64
  %26 = getelementptr inbounds i32, ptr %.val21, i64 %25
  %27 = load i32, ptr %26, align 4, !tbaa !35
  %.not = icmp eq i32 %27, 1
  br i1 %.not, label %28, label %41

28:                                               ; preds = %17
  %29 = load ptr, ptr %11, align 8, !tbaa !26
  %30 = getelementptr i8, ptr %29, i64 8
  %.val = load ptr, ptr %30, align 8, !tbaa !30
  %31 = getelementptr inbounds nuw ptr, ptr %.val, i64 %indvars.iv
  %32 = load ptr, ptr %31, align 8, !tbaa !32
  %33 = load i32, ptr %12, align 8, !tbaa !15
  %34 = and i32 %33, 31
  %35 = shl nuw i32 1, %34
  %36 = ashr i32 %33, 5
  %37 = sext i32 %36 to i64
  %38 = getelementptr inbounds i32, ptr %32, i64 %37
  %39 = load i32, ptr %38, align 4, !tbaa !35
  %40 = or i32 %35, %39
  store i32 %40, ptr %38, align 4, !tbaa !35
  %.val20.pre = load i32, ptr %6, align 4, !tbaa !45
  br label %41

41:                                               ; preds = %13, %28, %17
  %.val20 = phi i32 [ %.val2028, %13 ], [ %.val20.pre, %28 ], [ %.val2028, %17 ]
  %indvars.iv.next = add nuw nsw i64 %indvars.iv, 1
  %42 = sext i32 %.val20 to i64
  %43 = icmp slt i64 %indvars.iv.next, %42
  br i1 %43, label %13, label %.critedge, !llvm.loop !62

.critedge:                                        ; preds = %41, %1
  %44 = getelementptr inbounds nuw i8, ptr %0, i64 112
  %45 = load i32, ptr %44, align 8, !tbaa !15
  %46 = add nsw i32 %45, 1
  store i32 %46, ptr %44, align 8, !tbaa !15
  %47 = getelementptr inbounds nuw i8, ptr %0, i64 116
  %48 = load i32, ptr %47, align 4, !tbaa !63
  %49 = shl nsw i32 %48, 5
  %50 = icmp eq i32 %46, %49
  br i1 %50, label %51, label %104

51:                                               ; preds = %.critedge
  %52 = getelementptr inbounds nuw i8, ptr %0, i64 104
  %53 = load ptr, ptr %52, align 8, !tbaa !26
  %54 = getelementptr i8, ptr %53, i64 8
  %.val24.i = load ptr, ptr %54, align 8, !tbaa !30
  %55 = getelementptr inbounds nuw i8, ptr %.val24.i, i64 8
  %56 = load ptr, ptr %55, align 8, !tbaa !32
  %57 = load ptr, ptr %.val24.i, align 8, !tbaa !32
  %58 = ptrtoint ptr %56 to i64
  %59 = ptrtoint ptr %57 to i64
  %60 = sub i64 %58, %59
  %61 = lshr exact i64 %60, 2
  %62 = trunc i64 %61 to i32
  %63 = getelementptr i8, ptr %53, i64 4
  %.val25.i = load i32, ptr %63, align 4, !tbaa !45
  %64 = shl nsw i32 %62, 1
  %65 = sext i32 %64 to i64
  %66 = shl nsw i64 %65, 2
  %67 = add nsw i64 %66, 8
  %68 = sext i32 %.val25.i to i64
  %69 = mul i64 %67, %68
  %70 = tail call noalias ptr @malloc(i64 noundef %69) #16
  %71 = getelementptr inbounds ptr, ptr %70, i64 %68
  %72 = icmp sgt i32 %.val25.i, 0
  br i1 %72, label %.lr.ph.preheader.i.i, label %._crit_edge.thread.i

.lr.ph.preheader.i.i:                             ; preds = %51
  %wide.trip.count.i.i = zext nneg i32 %.val25.i to i64
  br label %.lr.ph.i.i

.lr.ph.i.i:                                       ; preds = %.lr.ph.i.i, %.lr.ph.preheader.i.i
  %indvars.iv.i.i = phi i64 [ 0, %.lr.ph.preheader.i.i ], [ %indvars.iv.next.i.i, %.lr.ph.i.i ]
  %73 = mul nsw i64 %indvars.iv.i.i, %65
  %74 = getelementptr inbounds i32, ptr %71, i64 %73
  %75 = getelementptr inbounds nuw ptr, ptr %70, i64 %indvars.iv.i.i
  store ptr %74, ptr %75, align 8, !tbaa !32
  %indvars.iv.next.i.i = add nuw nsw i64 %indvars.iv.i.i, 1
  %exitcond.not.i.i = icmp eq i64 %indvars.iv.next.i.i, %wide.trip.count.i.i
  br i1 %exitcond.not.i.i, label %Vec_PtrAllocSimInfo.exit.i, label %.lr.ph.i.i, !llvm.loop !64

Vec_PtrAllocSimInfo.exit.i:                       ; preds = %.lr.ph.i.i
  %76 = shl nsw i32 %62, 2
  %77 = sext i32 %76 to i64
  br label %78

78:                                               ; preds = %78, %Vec_PtrAllocSimInfo.exit.i
  %indvars.iv.i = phi i64 [ 0, %Vec_PtrAllocSimInfo.exit.i ], [ %indvars.iv.next.i, %78 ]
  %79 = getelementptr inbounds nuw ptr, ptr %70, i64 %indvars.iv.i
  %80 = load ptr, ptr %79, align 8, !tbaa !32
  %.val.i = load ptr, ptr %54, align 8, !tbaa !30
  %81 = getelementptr inbounds nuw ptr, ptr %.val.i, i64 %indvars.iv.i
  %82 = load ptr, ptr %81, align 8, !tbaa !32
  tail call void @llvm.memcpy.p0.p0.i64(ptr align 1 %80, ptr align 1 %82, i64 %77, i1 false)
  %indvars.iv.next.i = add nuw nsw i64 %indvars.iv.i, 1
  %83 = load i32, ptr %63, align 4, !tbaa !45
  %84 = sext i32 %83 to i64
  %85 = icmp slt i64 %indvars.iv.next.i, %84
  br i1 %85, label %78, label %._crit_edge.loopexit.i, !llvm.loop !65

._crit_edge.loopexit.i:                           ; preds = %78
  %.pre.i = load ptr, ptr %54, align 8, !tbaa !30
  %.not.i = icmp eq ptr %.pre.i, null
  br i1 %.not.i, label %Vec_PtrReallocSimInfo.exit, label %._crit_edge.thread.i

._crit_edge.thread.i:                             ; preds = %._crit_edge.loopexit.i, %51
  %86 = phi ptr [ %.pre.i, %._crit_edge.loopexit.i ], [ %.val24.i, %51 ]
  tail call void @free(ptr noundef nonnull %86) #17
  br label %Vec_PtrReallocSimInfo.exit

Vec_PtrReallocSimInfo.exit:                       ; preds = %._crit_edge.loopexit.i, %._crit_edge.thread.i
  store ptr %70, ptr %54, align 8, !tbaa !30
  %87 = load ptr, ptr %52, align 8, !tbaa !26
  %88 = getelementptr inbounds nuw i8, ptr %87, i64 4
  %89 = load i32, ptr %88, align 4, !tbaa !45
  %90 = icmp sgt i32 %89, 0
  br i1 %90, label %.lr.ph.i, label %Vec_PtrCleanSimInfo.exit

.lr.ph.i:                                         ; preds = %Vec_PtrReallocSimInfo.exit
  %91 = load i32, ptr %47, align 4, !tbaa !63
  %92 = getelementptr i8, ptr %87, i64 8
  %93 = shl nsw i32 %91, 2
  %94 = sext i32 %93 to i64
  br label %95

95:                                               ; preds = %95, %.lr.ph.i
  %indvars.iv.i22 = phi i64 [ 0, %.lr.ph.i ], [ %indvars.iv.next.i24, %95 ]
  %.val.i23 = load ptr, ptr %92, align 8, !tbaa !30
  %96 = getelementptr inbounds nuw ptr, ptr %.val.i23, i64 %indvars.iv.i22
  %97 = load ptr, ptr %96, align 8, !tbaa !32
  %98 = getelementptr inbounds i8, ptr %97, i64 %94
  tail call void @llvm.memset.p0.i64(ptr align 1 %98, i8 0, i64 %94, i1 false)
  %indvars.iv.next.i24 = add nuw nsw i64 %indvars.iv.i22, 1
  %99 = load i32, ptr %88, align 4, !tbaa !45
  %100 = sext i32 %99 to i64
  %101 = icmp slt i64 %indvars.iv.next.i24, %100
  br i1 %101, label %95, label %Vec_PtrCleanSimInfo.exit, !llvm.loop !66

Vec_PtrCleanSimInfo.exit:                         ; preds = %95, %Vec_PtrReallocSimInfo.exit
  %102 = load i32, ptr %47, align 4, !tbaa !63
  %103 = shl nsw i32 %102, 1
  store i32 %103, ptr %47, align 4, !tbaa !63
  br label %104

104:                                              ; preds = %Vec_PtrCleanSimInfo.exit, %.critedge
  ret void
}